target datalayout = "e-m:e-p270:32:32-p271:32:32-p272:64:64-i64:64-i128:128-f80:128-n8:16:32:64-S128"
target triple = "x86_64-pc-linux-gnu"

@ctest_errorsize = internal global i64 0, align 8
@ctest_errormsg = internal global ptr null, align 8

; Function Attrs: inlinehint nounwind uwtable
define internal void @vprint_errormsg(ptr noundef %0, ptr noundef %1) #3 {
  %3 = alloca ptr, align 8
  %4 = alloca ptr, align 8
  %5 = alloca i32, align 4
  %6 = alloca i64, align 8
  %7 = alloca i64, align 8
  store ptr %0, ptr %3, align 8, !tbaa !3
  store ptr %1, ptr %4, align 8, !tbaa !10
  call void @llvm.lifetime.start.p0(i64 4, ptr %5) #9
  %8 = load ptr, ptr @ctest_errormsg, align 8, !tbaa !3
  %9 = load i64, ptr @ctest_errorsize, align 8, !tbaa !12
  %10 = load ptr, ptr %3, align 8, !tbaa !3
  %11 = load ptr, ptr %4, align 8, !tbaa !10
  %12 = call i32 @vsnprintf(ptr noundef %8, i64 noundef %9, ptr noundef %10, ptr noundef %11) #9
  store i32 %12, ptr %5, align 4, !tbaa !8
  %13 = load i32, ptr %5, align 4, !tbaa !8
  %14 = icmp slt i32 %13, 0
  br i1 %14, label %15, label %18

15:                                               ; preds = %2
  %16 = load ptr, ptr @ctest_errormsg, align 8, !tbaa !3
  %17 = getelementptr inbounds i8, ptr %16, i64 0
  store i8 0, ptr %17, align 1, !tbaa !14
  br label %38

18:                                               ; preds = %2
  call void @llvm.lifetime.start.p0(i64 8, ptr %6) #9
  %19 = load i32, ptr %5, align 4, !tbaa !8
  %20 = sext i32 %19 to i64
  store i64 %20, ptr %6, align 8, !tbaa !12
  call void @llvm.lifetime.start.p0(i64 8, ptr %7) #9
  %21 = load i64, ptr @ctest_errorsize, align 8, !tbaa !12
  %22 = load i64, ptr %6, align 8, !tbaa !12
  %23 = icmp ule i64 %21, %22
  br i1 %23, label %24, label %28

24:                                               ; preds = %18
  %25 = load i64, ptr %6, align 8, !tbaa !12
  %26 = load i64, ptr @ctest_errorsize, align 8, !tbaa !12
  %27 = sub i64 %25, %26
  br label %30

28:                                               ; preds = %18
  %29 = load i64, ptr %6, align 8, !tbaa !12
  br label %30

30:                                               ; preds = %28, %24
  %31 = phi i64 [ %27, %24 ], [ %29, %28 ]
  store i64 %31, ptr %7, align 8, !tbaa !12
  %32 = load i64, ptr %7, align 8, !tbaa !12
  %33 = load i64, ptr @ctest_errorsize, align 8, !tbaa !12
  %34 = sub i64 %33, %32
  store i64 %34, ptr @ctest_errorsize, align 8, !tbaa !12
  %35 = load i64, ptr %7, align 8, !tbaa !12
  %36 = load ptr, ptr @ctest_errormsg, align 8, !tbaa !3
  %37 = getelementptr inbounds nuw i8, ptr %36, i64 %35
  store ptr %37, ptr @ctest_errormsg, align 8, !tbaa !3
  call void @llvm.lifetime.end.p0(i64 8, ptr %7) #9
  call void @llvm.lifetime.end.p0(i64 8, ptr %6) #9
  br label %38

38:                                               ; preds = %30, %15
  call void @llvm.lifetime.end.p0(i64 4, ptr %5) #9
  ret void
}