; Function Attrs: inlinehint nofree nounwind uwtable
define internal fastcc void @vprint_errormsg(ptr noundef readonly captures(none) %0, ptr noundef nonnull %1) unnamed_addr #3 {
  %3 = load ptr, ptr @ctest_errormsg, align 8, !tbaa !7
  %4 = load i64, ptr @ctest_errorsize, align 8, !tbaa !10
  %5 = tail call i32 @vsnprintf(ptr noundef %3, i64 noundef %4, ptr noundef %0, ptr noundef nonnull %1) #14
  %6 = icmp slt i32 %5, 0
  br i1 %6, label %7, label %9

7:                                                ; preds = %2
  %8 = load ptr, ptr @ctest_errormsg, align 8, !tbaa !7
  store i8 0, ptr %8, align 1, !tbaa !12
  br label %17

9:                                                ; preds = %2
  %10 = zext nneg i32 %5 to i64
  %11 = load i64, ptr @ctest_errorsize, align 8, !tbaa !10
  %.not = icmp ugt i64 %11, %10
  %12 = select i1 %.not, i64 0, i64 %11
  %13 = sub i64 %10, %12
  %14 = sub i64 %11, %13
  store i64 %14, ptr @ctest_errorsize, align 8, !tbaa !10
  %15 = load ptr, ptr @ctest_errormsg, align 8, !tbaa !7
  %16 = getelementptr inbounds nuw i8, ptr %15, i64 %13
  store ptr %16, ptr @ctest_errormsg, align 8, !tbaa !7
  br label %17

17:                                               ; preds = %9, %7
  ret void
}